; Function Attrs: nounwind sspstrong uwtable
define internal noundef i32 @parse_iso21_cb(i64 noundef %0, i64 noundef %1) #0 {
  %3 = tail call i64 @rb_reg_nth_match(i32 noundef 1, i64 noundef %0) #13
  %4 = tail call i64 @rb_reg_nth_match(i32 noundef 2, i64 noundef %0) #13
  %5 = tail call i64 @rb_reg_nth_match(i32 noundef 3, i64 noundef %0) #13
  %6 = icmp eq i64 %3, 4
  br i1 %6, label %12, label %7

7:                                                ; preds = %2
  %.pr.i = load i64, ptr @parse_iso21_cb.rbimpl_id, align 8, !tbaa !6
  %.not4.i = icmp eq i64 %.pr.i, 0
  br i1 %.not4.i, label %.lr.ph.i, label %rbimpl_intern_const.exit

.lr.ph.i:                                         ; preds = %7, %.lr.ph.i
  %8 = tail call i64 @rb_intern2(ptr noundef nonnull @.str.13, i64 noundef 6) #13
  store i64 %8, ptr @parse_iso21_cb.rbimpl_id, align 8, !tbaa !6
  %.not.i = icmp eq i64 %8, 0
  br i1 %.not.i, label %.lr.ph.i, label %rbimpl_intern_const.exit, !llvm.loop !36

rbimpl_intern_const.exit:                         ; preds = %.lr.ph.i, %7
  %.lcssa.i = phi i64 [ %.pr.i, %7 ], [ %8, %.lr.ph.i ]
  %9 = tail call i64 @rb_id2sym(i64 noundef %.lcssa.i) #13
  %10 = tail call i64 @rb_str_to_inum(i64 noundef %3, i32 noundef 10, i32 noundef 0) #13
  %11 = tail call i64 @rb_hash_aset(i64 noundef %1, i64 noundef %9, i64 noundef %10) #13
  br label %12

12:                                               ; preds = %rbimpl_intern_const.exit, %2
  %.pr.i14 = load i64, ptr @parse_iso21_cb.rbimpl_id.69, align 8, !tbaa !6
  %.not4.i15 = icmp eq i64 %.pr.i14, 0
  br i1 %.not4.i15, label %.lr.ph.i17, label %rbimpl_intern_const.exit19

.lr.ph.i17:                                       ; preds = %12, %.lr.ph.i17
  %13 = tail call i64 @rb_intern2(ptr noundef nonnull @.str.70, i64 noundef 5) #13
  store i64 %13, ptr @parse_iso21_cb.rbimpl_id.69, align 8, !tbaa !6
  %.not.i18 = icmp eq i64 %13, 0
  br i1 %.not.i18, label %.lr.ph.i17, label %rbimpl_intern_const.exit19, !llvm.loop !36

rbimpl_intern_const.exit19:                       ; preds = %.lr.ph.i17, %12
  %.lcssa.i16 = phi i64 [ %.pr.i14, %12 ], [ %13, %.lr.ph.i17 ]
  %14 = tail call i64 @rb_id2sym(i64 noundef %.lcssa.i16) #13
  %15 = tail call i64 @rb_str_to_inum(i64 noundef %4, i32 noundef 10, i32 noundef 0) #13
  %16 = tail call i64 @rb_hash_aset(i64 noundef %1, i64 noundef %14, i64 noundef %15) #13
  %17 = icmp eq i64 %5, 4
  br i1 %17, label %23, label %18

18:                                               ; preds = %rbimpl_intern_const.exit19
  %.pr.i20 = load i64, ptr @parse_iso21_cb.rbimpl_id.71, align 8, !tbaa !6
  %.not4.i21 = icmp eq i64 %.pr.i20, 0
  br i1 %.not4.i21, label %.lr.ph.i23, label %rbimpl_intern_const.exit25

.lr.ph.i23:                                       ; preds = %18, %.lr.ph.i23
  %19 = tail call i64 @rb_intern2(ptr noundef nonnull @.str.72, i64 noundef 5) #13
  store i64 %19, ptr @parse_iso21_cb.rbimpl_id.71, align 8, !tbaa !6
  %.not.i24 = icmp eq i64 %19, 0
  br i1 %.not.i24, label %.lr.ph.i23, label %rbimpl_intern_const.exit25, !llvm.loop !36

rbimpl_intern_const.exit25:                       ; preds = %.lr.ph.i23, %18
  %.lcssa.i22 = phi i64 [ %.pr.i20, %18 ], [ %19, %.lr.ph.i23 ]
  %20 = tail call i64 @rb_id2sym(i64 noundef %.lcssa.i22) #13
  %21 = tail call i64 @rb_str_to_inum(i64 noundef %5, i32 noundef 10, i32 noundef 0) #13
  %22 = tail call i64 @rb_hash_aset(i64 noundef %1, i64 noundef %20, i64 noundef %21) #13
  br label %23

23:                                               ; preds = %rbimpl_intern_const.exit25, %rbimpl_intern_const.exit19
  ret i32 1
}